; Function Attrs: mustprogress nounwind uwtable
define hidden void @_ZN7ciKlassC2EP5Klass(ptr noundef nonnull align 8 dereferenceable(44) %0, ptr noundef %1) unnamed_addr #0 align 2 {
  tail call void @_ZN6ciTypeC2EP5Klass(ptr noundef nonnull align 8 dereferenceable(25) %0, ptr noundef %1) #5
  store ptr getelementptr inbounds inrange(-16, 216) (i8, ptr @_ZTV7ciKlass, i64 16), ptr %0, align 8
  %3 = getelementptr inbounds i8, ptr %0, i64 16
  %4 = load ptr, ptr %3, align 8
  %5 = getelementptr inbounds i8, ptr %4, i64 8
  %6 = load i32, ptr %5, align 8
  %7 = getelementptr inbounds i8, ptr %0, i64 40
  store i32 %6, ptr %7, align 8
  %8 = getelementptr inbounds i8, ptr %4, i64 24
  %9 = load ptr, ptr %8, align 8
  %10 = icmp eq ptr %9, null
  br i1 %10, label %11, label %_ZN5ciEnv10get_symbolEP6Symbol.exit

11:                                               ; preds = %2
  %12 = load ptr, ptr @g_assert_poison, align 8
  store i8 88, ptr %12, align 1
  tail call void @_Z28report_should_not_reach_herePKci(ptr noundef nonnull @.str.11, i32 noundef 183) #6
  unreachable

_ZN5ciEnv10get_symbolEP6Symbol.exit:              ; preds = %2
  %13 = tail call align 8 ptr @llvm.threadlocal.address.p0(ptr align 8 @_ZN6Thread12_thr_currentE)
  %14 = load ptr, ptr %13, align 8
  %15 = getelementptr inbounds i8, ptr %14, i64 1808
  %16 = load ptr, ptr %15, align 8
  %17 = getelementptr inbounds i8, ptr %16, i64 56
  %18 = load ptr, ptr %17, align 8
  %19 = tail call noundef ptr @_ZN15ciObjectFactory10get_symbolEP6Symbol(ptr noundef nonnull align 8 dereferenceable(652) %18, ptr noundef nonnull %9) #5
  %20 = getelementptr inbounds i8, ptr %0, i64 32
  store ptr %19, ptr %20, align 8
  ret void
}